target datalayout = "e-m:e-p270:32:32-p271:32:32-p272:64:64-i64:64-i128:128-f80:128-n8:16:32:64-S128"
target triple = "x86_64-pc-linux-gnu"

%struct.SDL_DisabledEventBlock = type { [8 x i32] }

@SDL_disabled_events = internal global [256 x ptr] zeroinitializer, align 16

; Function Attrs: nounwind uwtable
define hidden zeroext i1 @SDL_EventEnabled_REAL(i32 noundef %0) #0 {
  %2 = alloca i1, align 1
  %3 = alloca i32, align 4
  %4 = alloca i8, align 1
  %5 = alloca i8, align 1
  %6 = alloca i32, align 4
  store i32 %0, ptr %3, align 4
  call void @llvm.lifetime.start.p0(i64 1, ptr %4) #5
  %7 = load i32, ptr %3, align 4
  %8 = lshr i32 %7, 8
  %9 = and i32 %8, 255
  %10 = trunc i32 %9 to i8
  store i8 %10, ptr %4, align 1
  call void @llvm.lifetime.start.p0(i64 1, ptr %5) #5
  %11 = load i32, ptr %3, align 4
  %12 = and i32 %11, 255
  %13 = trunc i32 %12 to i8
  store i8 %13, ptr %5, align 1
  %14 = load i8, ptr %4, align 1
  %15 = zext i8 %14 to i64
  %16 = getelementptr inbounds nuw [256 x ptr], ptr @SDL_disabled_events, i64 0, i64 %15
  %17 = load ptr, ptr %16, align 8
  %18 = icmp ne ptr %17, null
  br i1 %18, label %19, label %38

19:                                               ; preds = %1
  %20 = load i8, ptr %4, align 1
  %21 = zext i8 %20 to i64
  %22 = getelementptr inbounds nuw [256 x ptr], ptr @SDL_disabled_events, i64 0, i64 %21
  %23 = load ptr, ptr %22, align 8
  %24 = getelementptr inbounds nuw %struct.SDL_DisabledEventBlock, ptr %23, i32 0, i32 0
  %25 = load i8, ptr %5, align 1
  %26 = zext i8 %25 to i32
  %27 = sdiv i32 %26, 32
  %28 = sext i32 %27 to i64
  %29 = getelementptr inbounds [8 x i32], ptr %24, i64 0, i64 %28
  %30 = load i32, ptr %29, align 4
  %31 = load i8, ptr %5, align 1
  %32 = zext i8 %31 to i32
  %33 = and i32 %32, 31
  %34 = shl i32 1, %33
  %35 = and i32 %30, %34
  %36 = icmp ne i32 %35, 0
  br i1 %36, label %37, label %38

37:                                               ; preds = %19
  store i1 false, ptr %2, align 1
  store i32 1, ptr %6, align 4
  br label %39

38:                                               ; preds = %19, %1
  store i1 true, ptr %2, align 1
  store i32 1, ptr %6, align 4
  br label %39

39:                                               ; preds = %38, %37
  call void @llvm.lifetime.end.p0(i64 1, ptr %5) #5
  call void @llvm.lifetime.end.p0(i64 1, ptr %4) #5
  %40 = load i1, ptr %2, align 1
  ret i1 %40
}