; Function Attrs: mustprogress nofree norecurse nosync nounwind willreturn memory(read, inaccessiblemem: none) uwtable
define hidden noundef zeroext i1 @SDL_EventEnabled_REAL(i32 noundef %0) local_unnamed_addr #5 {
  %2 = lshr i32 %0, 8
  %3 = and i32 %2, 255
  %4 = zext nneg i32 %3 to i64
  %5 = getelementptr inbounds nuw [256 x ptr], ptr @SDL_disabled_events, i64 0, i64 %4
  %6 = load ptr, ptr %5, align 8
  %.not = icmp eq ptr %6, null
  br i1 %.not, label %16, label %7

7:                                                ; preds = %1
  %8 = lshr i32 %0, 5
  %9 = and i32 %8, 7
  %10 = zext nneg i32 %9 to i64
  %11 = getelementptr inbounds nuw [8 x i32], ptr %6, i64 0, i64 %10
  %12 = load i32, ptr %11, align 4
  %13 = and i32 %0, 31
  %14 = shl nuw i32 1, %13
  %15 = and i32 %12, %14
  %.not7 = icmp eq i32 %15, 0
  br i1 %.not7, label %16, label %17

16:                                               ; preds = %7, %1
  br label %17

17:                                               ; preds = %7, %16
  %.0 = phi i1 [ true, %16 ], [ false, %7 ]
  ret i1 %.0
}